; Function Attrs: mustprogress uwtable
define hidden void @_ZN4cvc58internal10IntBlaster15createBVNotNodeENS0_12NodeTemplateILb1EEEj(ptr noalias sret(%"class.cvc5::internal::NodeTemplate") align 8 %agg.result, ptr nocapture noundef nonnull readonly align 8 dereferenceable(468) %this, ptr nocapture noundef readonly %n, i32 noundef %bvsize) local_unnamed_addr #3 align 2 personality ptr @__gxx_personality_v0 {
entry:
  %nb.i = alloca %"class.cvc5::internal::NodeBuilder", align 8
  %agg.tmp.i = alloca %"class.cvc5::internal::NodeTemplate.99", align 8
  %agg.tmp4.i = alloca %"class.cvc5::internal::NodeTemplate.99", align 8
  %ref.tmp = alloca %"class.cvc5::internal::NodeTemplate", align 8
  %d_nm = getelementptr inbounds i8, ptr %this, i64 240
  %0 = load ptr, ptr %d_nm, align 8
  call void @_ZN4cvc58internal10IntBlaster6maxIntEj(ptr nonnull sret(%"class.cvc5::internal::NodeTemplate") align 8 %ref.tmp, ptr noundef nonnull align 8 dereferenceable(468) %this, i32 noundef %bvsize)
  %1 = load ptr, ptr %ref.tmp, align 8
  %2 = load ptr, ptr %n, align 8
  call void @llvm.lifetime.start.p0(i64 120, ptr nonnull %nb.i)
  call void @llvm.lifetime.start.p0(i64 8, ptr nonnull %agg.tmp.i)
  call void @llvm.lifetime.start.p0(i64 8, ptr nonnull %agg.tmp4.i)
  invoke void @_ZN4cvc58internal11NodeBuilderC1EPNS0_11NodeManagerENS0_4kind6Kind_tE(ptr noundef nonnull align 8 dereferenceable(116) %nb.i, ptr noundef nonnull %0, i32 noundef 39)
          to label %.noexc unwind label %lpad5

.noexc:                                           ; preds = %entry
  store ptr %1, ptr %agg.tmp.i, align 8, !noalias !208
  %call.i = invoke noundef nonnull align 8 dereferenceable(116) ptr @_ZN4cvc58internal11NodeBuilderlsENS0_12NodeTemplateILb0EEE(ptr noundef nonnull align 8 dereferenceable(116) %nb.i, ptr noundef nonnull %agg.tmp.i)
          to label %invoke.cont3.i unwind label %lpad2.i, !noalias !208

invoke.cont3.i:                                   ; preds = %.noexc
  store ptr %2, ptr %agg.tmp4.i, align 8, !noalias !208
  %call8.i = invoke noundef nonnull align 8 dereferenceable(116) ptr @_ZN4cvc58internal11NodeBuilderlsENS0_12NodeTemplateILb0EEE(ptr noundef nonnull align 8 dereferenceable(116) %call.i, ptr noundef nonnull %agg.tmp4.i)
          to label %invoke.cont7.i unwind label %lpad6.i, !noalias !208

invoke.cont7.i:                                   ; preds = %invoke.cont3.i
  invoke void @_ZN4cvc58internal11NodeBuilder13constructNodeEv(ptr sret(%"class.cvc5::internal::NodeTemplate") align 8 %agg.result, ptr noundef nonnull align 8 dereferenceable(116) %nb.i)
          to label %invoke.cont6 unwind label %lpad.i

lpad.i:                                           ; preds = %invoke.cont7.i
  %3 = landingpad { ptr, i32 }
          cleanup
  br label %ehcleanup10.i

lpad2.i:                                          ; preds = %.noexc
  %4 = landingpad { ptr, i32 }
          cleanup
  br label %ehcleanup10.i

lpad6.i:                                          ; preds = %invoke.cont3.i
  %5 = landingpad { ptr, i32 }
          cleanup
  br label %ehcleanup10.i

ehcleanup10.i:                                    ; preds = %lpad6.i, %lpad2.i, %lpad.i
  %.pn2.i = phi { ptr, i32 } [ %3, %lpad.i ], [ %5, %lpad6.i ], [ %4, %lpad2.i ]
  call void @_ZN4cvc58internal11NodeBuilderD1Ev(ptr noundef nonnull align 8 dereferenceable(116) %nb.i) #21
  br label %lpad5.body

invoke.cont6:                                     ; preds = %invoke.cont7.i
  call void @_ZN4cvc58internal11NodeBuilderD1Ev(ptr noundef nonnull align 8 dereferenceable(116) %nb.i) #21
  call void @llvm.lifetime.end.p0(i64 120, ptr nonnull %nb.i)
  call void @llvm.lifetime.end.p0(i64 8, ptr nonnull %agg.tmp.i)
  call void @llvm.lifetime.end.p0(i64 8, ptr nonnull %agg.tmp4.i)
  %6 = load ptr, ptr %ref.tmp, align 8
  %bf.load.i.i = load i64, ptr %6, align 8
  %7 = and i64 %bf.load.i.i, 1152920405095219200
  %cmp.not.i.i = icmp eq i64 %7, 1152920405095219200
  br i1 %cmp.not.i.i, label %_ZN4cvc58internal12NodeTemplateILb1EED2Ev.exit, label %if.then.i.i

if.then.i.i:                                      ; preds = %invoke.cont6
  %bf.value.i.i = add i64 %bf.load.i.i, 1152920405095219200
  %bf.shl.i.i = and i64 %bf.value.i.i, 1152920405095219200
  %bf.clear7.i.i = and i64 %bf.load.i.i, -1152920405095219201
  %bf.set.i.i = or disjoint i64 %bf.shl.i.i, %bf.clear7.i.i
  store i64 %bf.set.i.i, ptr %6, align 8
  %cmp12.i.i = icmp eq i64 %bf.shl.i.i, 0
  br i1 %cmp12.i.i, label %if.then13.i.i, label %_ZN4cvc58internal12NodeTemplateILb1EED2Ev.exit

if.then13.i.i:                                    ; preds = %if.then.i.i
  invoke void @_ZN4cvc58internal4expr9NodeValue15markForDeletionEv(ptr noundef nonnull align 8 dereferenceable(16) %6)
          to label %_ZN4cvc58internal12NodeTemplateILb1EED2Ev.exit unwind label %terminate.lpad.i

terminate.lpad.i:                                 ; preds = %if.then13.i.i
  %8 = landingpad { ptr, i32 }
          catch ptr null
  %9 = extractvalue { ptr, i32 } %8, 0
  call void @__clang_call_terminate(ptr %9) #22
  unreachable

_ZN4cvc58internal12NodeTemplateILb1EED2Ev.exit:   ; preds = %invoke.cont6, %if.then.i.i, %if.then13.i.i
  ret void

lpad5:                                            ; preds = %entry
  %10 = landingpad { ptr, i32 }
          cleanup
  br label %lpad5.body

lpad5.body:                                       ; preds = %ehcleanup10.i, %lpad5
  %eh.lpad-body = phi { ptr, i32 } [ %10, %lpad5 ], [ %.pn2.i, %ehcleanup10.i ]
  call void @_ZN4cvc58internal12NodeTemplateILb1EED2Ev(ptr noundef nonnull align 8 dereferenceable(8) %ref.tmp) #21
  resume { ptr, i32 } %eh.lpad-body
}